target datalayout = "e-m:e-p270:32:32-p271:32:32-p272:64:64-i64:64-i128:128-f80:128-n8:16:32:64-S128"
target triple = "x86_64-pc-linux-gnu"

%struct.sgraph = type { i32, i32, i32, i32, ptr, ptr }
%struct.snode = type { i32, i32, ptr, ptr, i16, i16, [2 x ptr], ptr, i32, i8 }

@stderr = external global ptr, align 8
@.str = private unnamed_addr constant [58 x i8] c"integer overflow when trying to allocate %zu * %zu bytes\0A\00", align 1
@.str.1 = private unnamed_addr constant [49 x i8] c"out of memory when trying to allocate %zu bytes\0A\00", align 1

; Function Attrs: inlinehint nounwind uwtable
define internal ptr @gv_calloc(i64 noundef %0, i64 noundef %1) #2 {
  %3 = alloca i64, align 8
  %4 = alloca i64, align 8
  %5 = alloca ptr, align 8
  store i64 %0, ptr %3, align 8, !tbaa !32
  store i64 %1, ptr %4, align 8, !tbaa !32
  %6 = load i64, ptr %3, align 8, !tbaa !32
  %7 = icmp ugt i64 %6, 0
  br i1 %7, label %8, label %18

8:                                                ; preds = %2
  %9 = load i64, ptr %3, align 8, !tbaa !32
  %10 = udiv i64 -1, %9
  %11 = load i64, ptr %4, align 8, !tbaa !32
  %12 = icmp ult i64 %10, %11
  br i1 %12, label %13, label %18

13:                                               ; preds = %8
  %14 = load ptr, ptr @stderr, align 8, !tbaa !34
  %15 = load i64, ptr %3, align 8, !tbaa !32
  %16 = load i64, ptr %4, align 8, !tbaa !32
  %17 = call i32 (ptr, ptr, ...) @fprintf(ptr noundef %14, ptr noundef @.str, i64 noundef %15, i64 noundef %16) #8
  call void @graphviz_exit(i32 noundef 1) #9
  unreachable

18:                                               ; preds = %8, %2
  call void @llvm.lifetime.start.p0(i64 8, ptr %5) #8
  %19 = load i64, ptr %3, align 8, !tbaa !32
  %20 = load i64, ptr %4, align 8, !tbaa !32
  %21 = call noalias ptr @calloc(i64 noundef %19, i64 noundef %20) #10
  store ptr %21, ptr %5, align 8, !tbaa !3
  %22 = load i64, ptr %3, align 8, !tbaa !32
  %23 = icmp ugt i64 %22, 0
  br i1 %23, label %24, label %36

24:                                               ; preds = %18
  %25 = load i64, ptr %4, align 8, !tbaa !32
  %26 = icmp ugt i64 %25, 0
  br i1 %26, label %27, label %36

27:                                               ; preds = %24
  %28 = load ptr, ptr %5, align 8, !tbaa !3
  %29 = icmp eq ptr %28, null
  br i1 %29, label %30, label %36

30:                                               ; preds = %27
  %31 = load ptr, ptr @stderr, align 8, !tbaa !34
  %32 = load i64, ptr %3, align 8, !tbaa !32
  %33 = load i64, ptr %4, align 8, !tbaa !32
  %34 = mul i64 %32, %33
  %35 = call i32 (ptr, ptr, ...) @fprintf(ptr noundef %31, ptr noundef @.str.1, i64 noundef %34) #8
  call void @graphviz_exit(i32 noundef 1) #9
  unreachable

36:                                               ; preds = %27, %24, %18
  %37 = load ptr, ptr %5, align 8, !tbaa !3
  call void @llvm.lifetime.end.p0(i64 8, ptr %5) #8
  ret ptr %37
}

; Function Attrs: nounwind uwtable
define void @initSEdges(ptr noundef %0, i32 noundef %1) #0 {
  %3 = alloca ptr, align 8
  %4 = alloca i32, align 4
  %5 = alloca i32, align 4
  %6 = alloca ptr, align 8
  store ptr %0, ptr %3, align 8, !tbaa !3
  store i32 %1, ptr %4, align 4, !tbaa !15
  call void @llvm.lifetime.start.p0(i64 4, ptr %5) #8
  call void @llvm.lifetime.start.p0(i64 8, ptr %6) #8
  %7 = load ptr, ptr %3, align 8, !tbaa !3
  %8 = getelementptr inbounds nuw %struct.sgraph, ptr %7, i32 0, i32 0
  %9 = load i32, ptr %8, align 8, !tbaa !7
  %10 = mul nsw i32 6, %9
  %11 = load i32, ptr %4, align 4, !tbaa !15
  %12 = mul nsw i32 2, %11
  %13 = add nsw i32 %10, %12
  %14 = sext i32 %13 to i64
  %15 = call ptr @gv_calloc(i64 noundef %14, i64 noundef 4)
  store ptr %15, ptr %6, align 8, !tbaa !27
  %16 = load ptr, ptr %3, align 8, !tbaa !3
  %17 = getelementptr inbounds nuw %struct.sgraph, ptr %16, i32 0, i32 0
  %18 = load i32, ptr %17, align 8, !tbaa !7
  %19 = mul nsw i32 3, %18
  %20 = load i32, ptr %4, align 4, !tbaa !15
  %21 = add nsw i32 %19, %20
  %22 = sext i32 %21 to i64
  %23 = call ptr @gv_calloc(i64 noundef %22, i64 noundef 24)
  %24 = load ptr, ptr %3, align 8, !tbaa !3
  %25 = getelementptr inbounds nuw %struct.sgraph, ptr %24, i32 0, i32 5
  store ptr %23, ptr %25, align 8, !tbaa !28
  store i32 0, ptr %5, align 4, !tbaa !15
  br label %26

26:                                               ; preds = %43, %2
  %27 = load i32, ptr %5, align 4, !tbaa !15
  %28 = load ptr, ptr %3, align 8, !tbaa !3
  %29 = getelementptr inbounds nuw %struct.sgraph, ptr %28, i32 0, i32 0
  %30 = load i32, ptr %29, align 8, !tbaa !7
  %31 = icmp slt i32 %27, %30
  br i1 %31, label %32, label %46

32:                                               ; preds = %26
  %33 = load ptr, ptr %6, align 8, !tbaa !27
  %34 = load ptr, ptr %3, align 8, !tbaa !3
  %35 = getelementptr inbounds nuw %struct.sgraph, ptr %34, i32 0, i32 4
  %36 = load ptr, ptr %35, align 8, !tbaa !16
  %37 = load i32, ptr %5, align 4, !tbaa !15
  %38 = sext i32 %37 to i64
  %39 = getelementptr inbounds %struct.snode, ptr %36, i64 %38
  %40 = getelementptr inbounds nuw %struct.snode, ptr %39, i32 0, i32 7
  store ptr %33, ptr %40, align 8, !tbaa !29
  %41 = load ptr, ptr %6, align 8, !tbaa !27
  %42 = getelementptr inbounds i32, ptr %41, i64 6
  store ptr %42, ptr %6, align 8, !tbaa !27
  br label %43

43:                                               ; preds = %32
  %44 = load i32, ptr %5, align 4, !tbaa !15
  %45 = add nsw i32 %44, 1
  store i32 %45, ptr %5, align 4, !tbaa !15
  br label %26, !llvm.loop !30

46:                                               ; preds = %26
  br label %47

47:                                               ; preds = %67, %46
  %48 = load i32, ptr %5, align 4, !tbaa !15
  %49 = load ptr, ptr %3, align 8, !tbaa !3
  %50 = getelementptr inbounds nuw %struct.sgraph, ptr %49, i32 0, i32 0
  %51 = load i32, ptr %50, align 8, !tbaa !7
  %52 = add nsw i32 %51, 2
  %53 = icmp slt i32 %48, %52
  br i1 %53, label %54, label %70

54:                                               ; preds = %47
  %55 = load ptr, ptr %6, align 8, !tbaa !27
  %56 = load ptr, ptr %3, align 8, !tbaa !3
  %57 = getelementptr inbounds nuw %struct.sgraph, ptr %56, i32 0, i32 4
  %58 = load ptr, ptr %57, align 8, !tbaa !16
  %59 = load i32, ptr %5, align 4, !tbaa !15
  %60 = sext i32 %59 to i64
  %61 = getelementptr inbounds %struct.snode, ptr %58, i64 %60
  %62 = getelementptr inbounds nuw %struct.snode, ptr %61, i32 0, i32 7
  store ptr %55, ptr %62, align 8, !tbaa !29
  %63 = load i32, ptr %4, align 4, !tbaa !15
  %64 = load ptr, ptr %6, align 8, !tbaa !27
  %65 = sext i32 %63 to i64
  %66 = getelementptr inbounds i32, ptr %64, i64 %65
  store ptr %66, ptr %6, align 8, !tbaa !27
  br label %67

67:                                               ; preds = %54
  %68 = load i32, ptr %5, align 4, !tbaa !15
  %69 = add nsw i32 %68, 1
  store i32 %69, ptr %5, align 4, !tbaa !15
  br label %47, !llvm.loop !31

70:                                               ; preds = %47
  call void @llvm.lifetime.end.p0(i64 8, ptr %6) #8
  call void @llvm.lifetime.end.p0(i64 4, ptr %5) #8
  ret void
}