; Function Attrs: nofree nounwind uwtable
define void @initSEdges(ptr noundef captures(none) %0, i32 noundef %1) local_unnamed_addr #1 {
  %3 = load i32, ptr %0, align 8, !tbaa !3
  %4 = mul nsw i32 %3, 6
  %5 = shl nsw i32 %1, 1
  %6 = add nsw i32 %4, %5
  %7 = sext i32 %6 to i64
  %.not.i = icmp eq i32 %6, 0
  br i1 %.not.i, label %.thread.i, label %9

.thread.i:                                        ; preds = %2
  %8 = tail call noalias ptr @calloc(i64 noundef 0, i64 noundef 4) #11
  br label %gv_calloc.exit

9:                                                ; preds = %2
  %mul.ov.i = icmp slt i32 %6, 0
  br i1 %mul.ov.i, label %10, label %13

10:                                               ; preds = %9
  %11 = load ptr, ptr @stderr, align 8, !tbaa !25
  %12 = tail call i32 (ptr, ptr, ...) @fprintf(ptr noundef %11, ptr noundef nonnull @.str, i64 noundef range(i64 -2147483648, 2147483648) %7, i64 noundef 4) #12
  tail call fastcc void @graphviz_exit() #13
  unreachable

13:                                               ; preds = %9
  %14 = tail call noalias ptr @calloc(i64 noundef range(i64 -2147483648, 2147483648) %7, i64 noundef 4) #11
  %15 = icmp eq ptr %14, null
  br i1 %15, label %16, label %gv_calloc.exit

16:                                               ; preds = %13
  %17 = load ptr, ptr @stderr, align 8, !tbaa !25
  %18 = shl nuw nsw i64 %7, 2
  %19 = tail call i32 (ptr, ptr, ...) @fprintf(ptr noundef %17, ptr noundef nonnull @.str.1, i64 noundef %18) #12
  tail call fastcc void @graphviz_exit() #13
  unreachable

gv_calloc.exit:                                   ; preds = %.thread.i, %13
  %20 = phi ptr [ %8, %.thread.i ], [ %14, %13 ]
  %21 = mul nsw i32 %3, 3
  %22 = add nsw i32 %21, %1
  %23 = sext i32 %22 to i64
  %.not.i21 = icmp eq i32 %22, 0
  br i1 %.not.i21, label %.thread.i24, label %25

.thread.i24:                                      ; preds = %gv_calloc.exit
  %24 = tail call noalias ptr @calloc(i64 noundef 0, i64 noundef 24) #11
  br label %gv_calloc.exit25

25:                                               ; preds = %gv_calloc.exit
  %mul.ov.i23 = icmp slt i32 %22, 0
  br i1 %mul.ov.i23, label %26, label %29

26:                                               ; preds = %25
  %27 = load ptr, ptr @stderr, align 8, !tbaa !25
  %28 = tail call i32 (ptr, ptr, ...) @fprintf(ptr noundef %27, ptr noundef nonnull @.str, i64 noundef range(i64 -2147483648, 2147483648) %23, i64 noundef 24) #12
  tail call fastcc void @graphviz_exit() #13
  unreachable

29:                                               ; preds = %25
  %30 = tail call noalias ptr @calloc(i64 noundef range(i64 -2147483648, 2147483648) %23, i64 noundef 24) #11
  %31 = icmp eq ptr %30, null
  br i1 %31, label %32, label %gv_calloc.exit25

32:                                               ; preds = %29
  %33 = load ptr, ptr @stderr, align 8, !tbaa !25
  %34 = mul nuw nsw i64 %23, 24
  %35 = tail call i32 (ptr, ptr, ...) @fprintf(ptr noundef %33, ptr noundef nonnull @.str.1, i64 noundef %34) #12
  tail call fastcc void @graphviz_exit() #13
  unreachable

gv_calloc.exit25:                                 ; preds = %.thread.i24, %29
  %36 = phi ptr [ %24, %.thread.i24 ], [ %30, %29 ]
  %37 = getelementptr inbounds nuw i8, ptr %0, i64 24
  store ptr %36, ptr %37, align 8, !tbaa !27
  %38 = icmp sgt i32 %3, 0
  br i1 %38, label %.lr.ph, label %.preheader

.lr.ph:                                           ; preds = %gv_calloc.exit25
  %39 = getelementptr inbounds nuw i8, ptr %0, i64 16
  %40 = load ptr, ptr %39, align 8, !tbaa !14
  %wide.trip.count = zext nneg i32 %3 to i64
  br label %46

.preheader:                                       ; preds = %gv_calloc.exit25
  %41 = icmp sgt i32 %3, -2
  br i1 %41, label %.lr.ph31, label %._crit_edge

.lr.ph31:                                         ; preds = %.preheader.thread, %.preheader
  %.0.lcssa42 = phi ptr [ %48, %.preheader.thread ], [ %20, %.preheader ]
  %.019.lcssa41 = phi i64 [ %49, %.preheader.thread ], [ 0, %.preheader ]
  %42 = add nsw i32 %3, 2
  %43 = getelementptr inbounds nuw i8, ptr %0, i64 16
  %44 = load ptr, ptr %43, align 8, !tbaa !14
  %45 = sext i32 %1 to i64
  %wide.trip.count37 = zext i32 %42 to i64
  br label %50

46:                                               ; preds = %.lr.ph, %46
  %indvars.iv = phi i64 [ 0, %.lr.ph ], [ %indvars.iv.next, %46 ]
  %.027 = phi ptr [ %20, %.lr.ph ], [ %48, %46 ]
  %47 = getelementptr inbounds nuw %struct.snode, ptr %40, i64 %indvars.iv, i32 7
  store ptr %.027, ptr %47, align 8, !tbaa !28
  %48 = getelementptr inbounds nuw i8, ptr %.027, i64 24
  %indvars.iv.next = add nuw nsw i64 %indvars.iv, 1
  %exitcond.not = icmp eq i64 %indvars.iv.next, %wide.trip.count
  br i1 %exitcond.not, label %.preheader.thread, label %46, !llvm.loop !29

.preheader.thread:                                ; preds = %46
  %49 = zext nneg i32 %3 to i64
  br label %.lr.ph31

50:                                               ; preds = %.lr.ph31, %50
  %indvars.iv34 = phi i64 [ %.019.lcssa41, %.lr.ph31 ], [ %indvars.iv.next35, %50 ]
  %.130 = phi ptr [ %.0.lcssa42, %.lr.ph31 ], [ %52, %50 ]
  %51 = getelementptr inbounds nuw %struct.snode, ptr %44, i64 %indvars.iv34, i32 7
  store ptr %.130, ptr %51, align 8, !tbaa !28
  %52 = getelementptr inbounds i32, ptr %.130, i64 %45
  %indvars.iv.next35 = add nuw nsw i64 %indvars.iv34, 1
  %exitcond38.not = icmp eq i64 %indvars.iv.next35, %wide.trip.count37
  br i1 %exitcond38.not, label %._crit_edge, label %50, !llvm.loop !30

._crit_edge:                                      ; preds = %50, %.preheader
  ret void
}